; ModuleID = '10/208.c'
source_filename = "10/208.c"
target datalayout = "e-m:e-p270:32:32-p271:32:32-p272:64:64-i64:64-f80:128-n8:16:32:64-S128"
target triple = "x86_64-pc-linux-gnu"

@b = dso_local global i32 0, align 4
@max = dso_local global i32 0, align 4
@a = common dso_local global [100 x i32] zeroinitializer, align 16
@.str = private unnamed_addr constant [4 x i8] c"%d\0A\00", align 1
@n = common dso_local global i32 0, align 4
@.str.1 = private unnamed_addr constant [3 x i8] c"%d\00", align 1

; Function Attrs: noinline nounwind uwtable
define dso_local void @fun(i32 %0, i32 %1) #0 {
  %3 = alloca i32, align 4
  %4 = alloca i32, align 4
  %5 = alloca i32, align 4
  store i32 %0, i32* %3, align 4
  store i32 %1, i32* %4, align 4
  %6 = load i32, i32* %3, align 4
  %7 = icmp eq i32 %6, 0
  br i1 %7, label %8, label %15

8:                                                ; preds = %2
  %9 = load i32, i32* @b, align 4
  %10 = load i32, i32* @max, align 4
  %11 = icmp sgt i32 %9, %10
  br i1 %11, label %12, label %14

12:                                               ; preds = %8
  %13 = load i32, i32* @b, align 4
  store i32 %13, i32* @max, align 4
  br label %14

14:                                               ; preds = %12, %8
  br label %63

15:                                               ; preds = %2
  %16 = load i32, i32* %3, align 4
  %17 = sext i32 %16 to i64
  %18 = getelementptr inbounds [100 x i32], [100 x i32]* @a, i64 0, i64 %17
  %19 = load i32, i32* %18, align 4
  %20 = load i32, i32* %4, align 4
  %21 = icmp slt i32 %19, %20
  br i1 %21, label %22, label %26

22:                                               ; preds = %15
  %23 = load i32, i32* %3, align 4
  %24 = sub nsw i32 %23, 1
  %25 = load i32, i32* %4, align 4
  call void @fun(i32 %24, i32 %25)
  br label %62

26:                                               ; preds = %15
  %27 = load i32, i32* %3, align 4
  %28 = sext i32 %27 to i64
  %29 = getelementptr inbounds [100 x i32], [100 x i32]* @a, i64 0, i64 %28
  %30 = load i32, i32* %29, align 4
  %31 = load i32, i32* %4, align 4
  %32 = icmp sge i32 %30, %31
  br i1 %32, label %33, label %61

33:                                               ; preds = %26
  %34 = load i32, i32* %3, align 4
  store i32 %34, i32* %5, align 4
  br label %35

35:                                               ; preds = %57, %33
  %36 = load i32, i32* %5, align 4
  %37 = icmp sge i32 %36, 1
  br i1 %37, label %38, label %60

38:                                               ; preds = %35
  %39 = load i32, i32* %5, align 4
  %40 = sext i32 %39 to i64
  %41 = getelementptr inbounds [100 x i32], [100 x i32]* @a, i64 0, i64 %40
  %42 = load i32, i32* %41, align 4
  %43 = load i32, i32* %4, align 4
  %44 = icmp sge i32 %42, %43
  br i1 %44, label %45, label %56

45:                                               ; preds = %38
  %46 = load i32, i32* @b, align 4
  %47 = add nsw i32 %46, 1
  store i32 %47, i32* @b, align 4
  %48 = load i32, i32* %5, align 4
  %49 = sub nsw i32 %48, 1
  %50 = load i32, i32* %5, align 4
  %51 = sext i32 %50 to i64
  %52 = getelementptr inbounds [100 x i32], [100 x i32]* @a, i64 0, i64 %51
  %53 = load i32, i32* %52, align 4
  call void @fun(i32 %49, i32 %53)
  %54 = load i32, i32* @b, align 4
  %55 = add nsw i32 %54, -1
  store i32 %55, i32* @b, align 4
  br label %56

56:                                               ; preds = %45, %38
  br label %57

57:                                               ; preds = %56
  %58 = load i32, i32* %5, align 4
  %59 = add nsw i32 %58, -1
  store i32 %59, i32* %5, align 4
  br label %35

60:                                               ; preds = %35
  br label %61

61:                                               ; preds = %60, %26
  br label %62

62:                                               ; preds = %61, %22
  br label %63

63:                                               ; preds = %62, %14
  ret void
}

; Function Attrs: noinline nounwind uwtable
define dso_local void @main() #0 {
  %1 = alloca i32, align 4
  %2 = call i32 (i8*, ...) @__isoc99_scanf(i8* getelementptr inbounds ([4 x i8], [4 x i8]* @.str, i64 0, i64 0), i32* @n)
  store i32 1, i32* %1, align 4
  br label %3

3:                                                ; preds = %12, %0
  %4 = load i32, i32* %1, align 4
  %5 = load i32, i32* @n, align 4
  %6 = icmp sle i32 %4, %5
  br i1 %6, label %7, label %15

7:                                                ; preds = %3
  %8 = load i32, i32* %1, align 4
  %9 = sext i32 %8 to i64
  %10 = getelementptr inbounds [100 x i32], [100 x i32]* @a, i64 0, i64 %9
  %11 = call i32 (i8*, ...) @__isoc99_scanf(i8* getelementptr inbounds ([3 x i8], [3 x i8]* @.str.1, i64 0, i64 0), i32* %10)
  br label %12

12:                                               ; preds = %7
  %13 = load i32, i32* %1, align 4
  %14 = add nsw i32 %13, 1
  store i32 %14, i32* %1, align 4
  br label %3

15:                                               ; preds = %3
  %16 = load i32, i32* @n, align 4
  call void @fun(i32 %16, i32 0)
  %17 = load i32, i32* @max, align 4
  %18 = call i32 (i8*, ...) @printf(i8* getelementptr inbounds ([3 x i8], [3 x i8]* @.str.1, i64 0, i64 0), i32 %17)
  ret void
}

declare dso_local i32 @__isoc99_scanf(i8*, ...) #1

declare dso_local i32 @printf(i8*, ...) #1


!llvm.module.flags = !{!0}
!llvm.ident = !{!1}

!0 = !{i32 1, !"wchar_size", i32 4}
!1 = !{!"clang version 10.0.0-4ubuntu1 "}
